target datalayout = "e-m:e-p270:32:32-p271:32:32-p272:64:64-i64:64-i128:128-f80:128-n8:16:32:64-S128"
target triple = "x86_64-pc-linux-gnu"

%"class.pxrInternal_v0_24__pxrReserved__::GfMatrix4d" = type { %"class.pxrInternal_v0_24__pxrReserved__::GfMatrixData" }
%"class.pxrInternal_v0_24__pxrReserved__::GfMatrixData" = type { [16 x double] }

; Function Attrs: mustprogress nounwind uwtable
define linkonce_odr noundef ptr @_ZNK32pxrInternal_v0_24__pxrReserved__12GfMatrixDataIdLi4ELi4EEixEi(ptr noundef nonnull align 8 dereferenceable(128) %0, i32 noundef %1) #2 comdat align 2 {
  %3 = alloca ptr, align 8
  %4 = alloca i32, align 4
  store ptr %0, ptr %3, align 8
  store i32 %1, ptr %4, align 4
  %5 = load ptr, ptr %3, align 8
  %6 = getelementptr inbounds nuw %"class.pxrInternal_v0_24__pxrReserved__::GfMatrixData", ptr %5, i32 0, i32 0
  %7 = getelementptr inbounds [16 x double], ptr %6, i64 0, i64 0
  %8 = load i32, ptr %4, align 4
  %9 = mul nsw i32 %8, 4
  %10 = sext i32 %9 to i64
  %11 = getelementptr inbounds double, ptr %7, i64 %10
  ret ptr %11
}

; Function Attrs: mustprogress uwtable
define noundef double @_ZNK32pxrInternal_v0_24__pxrReserved__10GfMatrix4d16_GetDeterminant3Emmmmmm(ptr noundef nonnull align 8 dereferenceable(128) %0, i64 noundef %1, i64 noundef %2, i64 noundef %3, i64 noundef %4, i64 noundef %5, i64 noundef %6) #0 align 2 {
  %8 = alloca ptr, align 8
  %9 = alloca i64, align 8
  %10 = alloca i64, align 8
  %11 = alloca i64, align 8
  %12 = alloca i64, align 8
  %13 = alloca i64, align 8
  %14 = alloca i64, align 8
  store ptr %0, ptr %8, align 8
  store i64 %1, ptr %9, align 8
  store i64 %2, ptr %10, align 8
  store i64 %3, ptr %11, align 8
  store i64 %4, ptr %12, align 8
  store i64 %5, ptr %13, align 8
  store i64 %6, ptr %14, align 8
  %15 = load ptr, ptr %8, align 8
  %16 = getelementptr inbounds nuw %"class.pxrInternal_v0_24__pxrReserved__::GfMatrix4d", ptr %15, i32 0, i32 0
  %17 = load i64, ptr %9, align 8
  %18 = trunc i64 %17 to i32
  %19 = call noundef ptr @_ZNK32pxrInternal_v0_24__pxrReserved__12GfMatrixDataIdLi4ELi4EEixEi(ptr noundef nonnull align 8 dereferenceable(128) %16, i32 noundef %18)
  %20 = load i64, ptr %12, align 8
  %21 = getelementptr inbounds double, ptr %19, i64 %20
  %22 = load double, ptr %21, align 8
  %23 = getelementptr inbounds nuw %"class.pxrInternal_v0_24__pxrReserved__::GfMatrix4d", ptr %15, i32 0, i32 0
  %24 = load i64, ptr %10, align 8
  %25 = trunc i64 %24 to i32
  %26 = call noundef ptr @_ZNK32pxrInternal_v0_24__pxrReserved__12GfMatrixDataIdLi4ELi4EEixEi(ptr noundef nonnull align 8 dereferenceable(128) %23, i32 noundef %25)
  %27 = load i64, ptr %13, align 8
  %28 = getelementptr inbounds double, ptr %26, i64 %27
  %29 = load double, ptr %28, align 8
  %30 = fmul double %22, %29
  %31 = getelementptr inbounds nuw %"class.pxrInternal_v0_24__pxrReserved__::GfMatrix4d", ptr %15, i32 0, i32 0
  %32 = load i64, ptr %11, align 8
  %33 = trunc i64 %32 to i32
  %34 = call noundef ptr @_ZNK32pxrInternal_v0_24__pxrReserved__12GfMatrixDataIdLi4ELi4EEixEi(ptr noundef nonnull align 8 dereferenceable(128) %31, i32 noundef %33)
  %35 = load i64, ptr %14, align 8
  %36 = getelementptr inbounds double, ptr %34, i64 %35
  %37 = load double, ptr %36, align 8
  %38 = getelementptr inbounds nuw %"class.pxrInternal_v0_24__pxrReserved__::GfMatrix4d", ptr %15, i32 0, i32 0
  %39 = load i64, ptr %9, align 8
  %40 = trunc i64 %39 to i32
  %41 = call noundef ptr @_ZNK32pxrInternal_v0_24__pxrReserved__12GfMatrixDataIdLi4ELi4EEixEi(ptr noundef nonnull align 8 dereferenceable(128) %38, i32 noundef %40)
  %42 = load i64, ptr %13, align 8
  %43 = getelementptr inbounds double, ptr %41, i64 %42
  %44 = load double, ptr %43, align 8
  %45 = getelementptr inbounds nuw %"class.pxrInternal_v0_24__pxrReserved__::GfMatrix4d", ptr %15, i32 0, i32 0
  %46 = load i64, ptr %10, align 8
  %47 = trunc i64 %46 to i32
  %48 = call noundef ptr @_ZNK32pxrInternal_v0_24__pxrReserved__12GfMatrixDataIdLi4ELi4EEixEi(ptr noundef nonnull align 8 dereferenceable(128) %45, i32 noundef %47)
  %49 = load i64, ptr %14, align 8
  %50 = getelementptr inbounds double, ptr %48, i64 %49
  %51 = load double, ptr %50, align 8
  %52 = fmul double %44, %51
  %53 = getelementptr inbounds nuw %"class.pxrInternal_v0_24__pxrReserved__::GfMatrix4d", ptr %15, i32 0, i32 0
  %54 = load i64, ptr %11, align 8
  %55 = trunc i64 %54 to i32
  %56 = call noundef ptr @_ZNK32pxrInternal_v0_24__pxrReserved__12GfMatrixDataIdLi4ELi4EEixEi(ptr noundef nonnull align 8 dereferenceable(128) %53, i32 noundef %55)
  %57 = load i64, ptr %12, align 8
  %58 = getelementptr inbounds double, ptr %56, i64 %57
  %59 = load double, ptr %58, align 8
  %60 = fmul double %52, %59
  %61 = call double @llvm.fmuladd.f64(double %30, double %37, double %60)
  %62 = getelementptr inbounds nuw %"class.pxrInternal_v0_24__pxrReserved__::GfMatrix4d", ptr %15, i32 0, i32 0
  %63 = load i64, ptr %9, align 8
  %64 = trunc i64 %63 to i32
  %65 = call noundef ptr @_ZNK32pxrInternal_v0_24__pxrReserved__12GfMatrixDataIdLi4ELi4EEixEi(ptr noundef nonnull align 8 dereferenceable(128) %62, i32 noundef %64)
  %66 = load i64, ptr %14, align 8
  %67 = getelementptr inbounds double, ptr %65, i64 %66
  %68 = load double, ptr %67, align 8
  %69 = getelementptr inbounds nuw %"class.pxrInternal_v0_24__pxrReserved__::GfMatrix4d", ptr %15, i32 0, i32 0
  %70 = load i64, ptr %10, align 8
  %71 = trunc i64 %70 to i32
  %72 = call noundef ptr @_ZNK32pxrInternal_v0_24__pxrReserved__12GfMatrixDataIdLi4ELi4EEixEi(ptr noundef nonnull align 8 dereferenceable(128) %69, i32 noundef %71)
  %73 = load i64, ptr %12, align 8
  %74 = getelementptr inbounds double, ptr %72, i64 %73
  %75 = load double, ptr %74, align 8
  %76 = fmul double %68, %75
  %77 = getelementptr inbounds nuw %"class.pxrInternal_v0_24__pxrReserved__::GfMatrix4d", ptr %15, i32 0, i32 0
  %78 = load i64, ptr %11, align 8
  %79 = trunc i64 %78 to i32
  %80 = call noundef ptr @_ZNK32pxrInternal_v0_24__pxrReserved__12GfMatrixDataIdLi4ELi4EEixEi(ptr noundef nonnull align 8 dereferenceable(128) %77, i32 noundef %79)
  %81 = load i64, ptr %13, align 8
  %82 = getelementptr inbounds double, ptr %80, i64 %81
  %83 = load double, ptr %82, align 8
  %84 = call double @llvm.fmuladd.f64(double %76, double %83, double %61)
  %85 = getelementptr inbounds nuw %"class.pxrInternal_v0_24__pxrReserved__::GfMatrix4d", ptr %15, i32 0, i32 0
  %86 = load i64, ptr %9, align 8
  %87 = trunc i64 %86 to i32
  %88 = call noundef ptr @_ZNK32pxrInternal_v0_24__pxrReserved__12GfMatrixDataIdLi4ELi4EEixEi(ptr noundef nonnull align 8 dereferenceable(128) %85, i32 noundef %87)
  %89 = load i64, ptr %12, align 8
  %90 = getelementptr inbounds double, ptr %88, i64 %89
  %91 = load double, ptr %90, align 8
  %92 = getelementptr inbounds nuw %"class.pxrInternal_v0_24__pxrReserved__::GfMatrix4d", ptr %15, i32 0, i32 0
  %93 = load i64, ptr %10, align 8
  %94 = trunc i64 %93 to i32
  %95 = call noundef ptr @_ZNK32pxrInternal_v0_24__pxrReserved__12GfMatrixDataIdLi4ELi4EEixEi(ptr noundef nonnull align 8 dereferenceable(128) %92, i32 noundef %94)
  %96 = load i64, ptr %14, align 8
  %97 = getelementptr inbounds double, ptr %95, i64 %96
  %98 = load double, ptr %97, align 8
  %99 = fmul double %91, %98
  %100 = getelementptr inbounds nuw %"class.pxrInternal_v0_24__pxrReserved__::GfMatrix4d", ptr %15, i32 0, i32 0
  %101 = load i64, ptr %11, align 8
  %102 = trunc i64 %101 to i32
  %103 = call noundef ptr @_ZNK32pxrInternal_v0_24__pxrReserved__12GfMatrixDataIdLi4ELi4EEixEi(ptr noundef nonnull align 8 dereferenceable(128) %100, i32 noundef %102)
  %104 = load i64, ptr %13, align 8
  %105 = getelementptr inbounds double, ptr %103, i64 %104
  %106 = load double, ptr %105, align 8
  %107 = fneg double %99
  %108 = call double @llvm.fmuladd.f64(double %107, double %106, double %84)
  %109 = getelementptr inbounds nuw %"class.pxrInternal_v0_24__pxrReserved__::GfMatrix4d", ptr %15, i32 0, i32 0
  %110 = load i64, ptr %9, align 8
  %111 = trunc i64 %110 to i32
  %112 = call noundef ptr @_ZNK32pxrInternal_v0_24__pxrReserved__12GfMatrixDataIdLi4ELi4EEixEi(ptr noundef nonnull align 8 dereferenceable(128) %109, i32 noundef %111)
  %113 = load i64, ptr %13, align 8
  %114 = getelementptr inbounds double, ptr %112, i64 %113
  %115 = load double, ptr %114, align 8
  %116 = getelementptr inbounds nuw %"class.pxrInternal_v0_24__pxrReserved__::GfMatrix4d", ptr %15, i32 0, i32 0
  %117 = load i64, ptr %10, align 8
  %118 = trunc i64 %117 to i32
  %119 = call noundef ptr @_ZNK32pxrInternal_v0_24__pxrReserved__12GfMatrixDataIdLi4ELi4EEixEi(ptr noundef nonnull align 8 dereferenceable(128) %116, i32 noundef %118)
  %120 = load i64, ptr %12, align 8
  %121 = getelementptr inbounds double, ptr %119, i64 %120
  %122 = load double, ptr %121, align 8
  %123 = fmul double %115, %122
  %124 = getelementptr inbounds nuw %"class.pxrInternal_v0_24__pxrReserved__::GfMatrix4d", ptr %15, i32 0, i32 0
  %125 = load i64, ptr %11, align 8
  %126 = trunc i64 %125 to i32
  %127 = call noundef ptr @_ZNK32pxrInternal_v0_24__pxrReserved__12GfMatrixDataIdLi4ELi4EEixEi(ptr noundef nonnull align 8 dereferenceable(128) %124, i32 noundef %126)
  %128 = load i64, ptr %14, align 8
  %129 = getelementptr inbounds double, ptr %127, i64 %128
  %130 = load double, ptr %129, align 8
  %131 = fneg double %123
  %132 = call double @llvm.fmuladd.f64(double %131, double %130, double %108)
  %133 = getelementptr inbounds nuw %"class.pxrInternal_v0_24__pxrReserved__::GfMatrix4d", ptr %15, i32 0, i32 0
  %134 = load i64, ptr %9, align 8
  %135 = trunc i64 %134 to i32
  %136 = call noundef ptr @_ZNK32pxrInternal_v0_24__pxrReserved__12GfMatrixDataIdLi4ELi4EEixEi(ptr noundef nonnull align 8 dereferenceable(128) %133, i32 noundef %135)
  %137 = load i64, ptr %14, align 8
  %138 = getelementptr inbounds double, ptr %136, i64 %137
  %139 = load double, ptr %138, align 8
  %140 = getelementptr inbounds nuw %"class.pxrInternal_v0_24__pxrReserved__::GfMatrix4d", ptr %15, i32 0, i32 0
  %141 = load i64, ptr %10, align 8
  %142 = trunc i64 %141 to i32
  %143 = call noundef ptr @_ZNK32pxrInternal_v0_24__pxrReserved__12GfMatrixDataIdLi4ELi4EEixEi(ptr noundef nonnull align 8 dereferenceable(128) %140, i32 noundef %142)
  %144 = load i64, ptr %13, align 8
  %145 = getelementptr inbounds double, ptr %143, i64 %144
  %146 = load double, ptr %145, align 8
  %147 = fmul double %139, %146
  %148 = getelementptr inbounds nuw %"class.pxrInternal_v0_24__pxrReserved__::GfMatrix4d", ptr %15, i32 0, i32 0
  %149 = load i64, ptr %11, align 8
  %150 = trunc i64 %149 to i32
  %151 = call noundef ptr @_ZNK32pxrInternal_v0_24__pxrReserved__12GfMatrixDataIdLi4ELi4EEixEi(ptr noundef nonnull align 8 dereferenceable(128) %148, i32 noundef %150)
  %152 = load i64, ptr %12, align 8
  %153 = getelementptr inbounds double, ptr %151, i64 %152
  %154 = load double, ptr %153, align 8
  %155 = fneg double %147
  %156 = call double @llvm.fmuladd.f64(double %155, double %154, double %132)
  ret double %156
}