; Function Attrs: mustprogress nofree norecurse nosync nounwind willreturn memory(argmem: read) uwtable
define noundef double @_ZNK32pxrInternal_v0_24__pxrReserved__10GfMatrix4d16_GetDeterminant3Emmmmmm(ptr nocapture noundef nonnull readonly align 8 dereferenceable(128) %0, i64 noundef %1, i64 noundef %2, i64 noundef %3, i64 noundef %4, i64 noundef %5, i64 noundef %6) local_unnamed_addr #6 align 2 {
  %8 = trunc i64 %1 to i32
  %9 = shl nsw i32 %8, 2
  %10 = sext i32 %9 to i64
  %11 = getelementptr inbounds double, ptr %0, i64 %10
  %12 = getelementptr inbounds double, ptr %11, i64 %4
  %13 = load double, ptr %12, align 8
  %14 = trunc i64 %2 to i32
  %15 = shl nsw i32 %14, 2
  %16 = sext i32 %15 to i64
  %17 = getelementptr inbounds double, ptr %0, i64 %16
  %18 = getelementptr inbounds double, ptr %17, i64 %5
  %19 = load double, ptr %18, align 8
  %20 = fmul double %13, %19
  %21 = trunc i64 %3 to i32
  %22 = shl nsw i32 %21, 2
  %23 = sext i32 %22 to i64
  %24 = getelementptr inbounds double, ptr %0, i64 %23
  %25 = getelementptr inbounds double, ptr %24, i64 %6
  %26 = load double, ptr %25, align 8
  %27 = getelementptr inbounds double, ptr %11, i64 %5
  %28 = load double, ptr %27, align 8
  %29 = getelementptr inbounds double, ptr %17, i64 %6
  %30 = load double, ptr %29, align 8
  %31 = fmul double %28, %30
  %32 = getelementptr inbounds double, ptr %24, i64 %4
  %33 = load double, ptr %32, align 8
  %34 = fmul double %31, %33
  %35 = tail call double @llvm.fmuladd.f64(double %20, double %26, double %34)
  %36 = getelementptr inbounds double, ptr %11, i64 %6
  %37 = load double, ptr %36, align 8
  %38 = getelementptr inbounds double, ptr %17, i64 %4
  %39 = load double, ptr %38, align 8
  %40 = fmul double %37, %39
  %41 = getelementptr inbounds double, ptr %24, i64 %5
  %42 = load double, ptr %41, align 8
  %43 = tail call double @llvm.fmuladd.f64(double %40, double %42, double %35)
  %44 = fneg double %30
  %45 = fmul double %13, %44
  %46 = tail call double @llvm.fmuladd.f64(double %45, double %42, double %43)
  %47 = fneg double %39
  %48 = fmul double %28, %47
  %49 = tail call double @llvm.fmuladd.f64(double %48, double %26, double %46)
  %50 = fneg double %19
  %51 = fmul double %37, %50
  %52 = tail call double @llvm.fmuladd.f64(double %51, double %33, double %49)
  ret double %52
}